; Function Attrs: mustprogress nounwind uwtable
define dso_local void @_ZN15Sample_SoloMeshD0Ev(ptr noundef nonnull align 8 dereferenceable(356) %0) unnamed_addr #5 align 2 personality ptr @__gxx_personality_v0 {
  store ptr getelementptr inbounds ({ [23 x ptr] }, ptr @_ZTV15Sample_SoloMesh, i64 0, i32 0, i64 2), ptr %0, align 8
  invoke void @_ZN15Sample_SoloMesh7cleanupEv(ptr noundef nonnull align 8 dereferenceable(356) %0)
          to label %_ZN15Sample_SoloMeshD2Ev.exit unwind label %2

2:                                                ; preds = %1
  %3 = landingpad { ptr, i32 }
          catch ptr null
  %4 = extractvalue { ptr, i32 } %3, 0
  tail call void @__clang_call_terminate(ptr %4) #13
  unreachable

_ZN15Sample_SoloMeshD2Ev.exit:                    ; preds = %1
  tail call void @_ZN6SampleD2Ev(ptr noundef nonnull align 8 dereferenceable(200) %0) #12
  tail call void @_ZdlPv(ptr noundef nonnull %0) #11
  ret void
}